; Function Attrs: nounwind uwtable
define hidden range(i32 0, 2) i32 @uv__iou_fs_mkdir(ptr noundef %0, ptr noundef %1) local_unnamed_addr #0 {
  %3 = tail call i32 @uv__kernel_version()
  %4 = icmp ult i32 %3, 331520
  br i1 %4, label %uv__iou_submit.exit, label %5

5:                                                ; preds = %2
  %6 = getelementptr inbounds nuw i8, ptr %0, i64 40
  %7 = load ptr, ptr %6, align 8
  %8 = getelementptr inbounds nuw i8, ptr %7, i64 320
  %9 = tail call fastcc ptr @uv__iou_get_sqe(ptr noundef nonnull %8, ptr noundef %0, ptr noundef %1)
  %10 = icmp eq ptr %9, null
  br i1 %10, label %uv__iou_submit.exit, label %11

11:                                               ; preds = %5
  %12 = getelementptr inbounds nuw i8, ptr %1, i64 104
  %13 = load ptr, ptr %12, align 8
  %14 = ptrtoint ptr %13 to i64
  %15 = getelementptr inbounds nuw i8, ptr %9, i64 16
  store i64 %14, ptr %15, align 8
  %16 = getelementptr inbounds nuw i8, ptr %9, i64 4
  store i32 -100, ptr %16, align 4
  %17 = getelementptr inbounds nuw i8, ptr %1, i64 288
  %18 = load i32, ptr %17, align 8
  %19 = getelementptr inbounds nuw i8, ptr %9, i64 24
  store i32 %18, ptr %19, align 8
  store i8 37, ptr %9, align 8
  %20 = getelementptr inbounds nuw i8, ptr %7, i64 328
  %21 = load ptr, ptr %20, align 8
  %22 = load i32, ptr %21, align 4
  %23 = add i32 %22, 1
  store atomic i32 %23, ptr %21 release, align 4
  %24 = getelementptr inbounds nuw i8, ptr %7, i64 344
  %25 = load ptr, ptr %24, align 8
  %26 = load atomic i32, ptr %25 acquire, align 4
  %27 = and i32 %26, 1
  %.not.i = icmp eq i32 %27, 0
  br i1 %.not.i, label %uv__iou_submit.exit, label %28

28:                                               ; preds = %11
  %29 = getelementptr inbounds nuw i8, ptr %7, i64 432
  %30 = load i32, ptr %29, align 8
  %31 = tail call i64 (i64, ...) @syscall(i64 noundef 426, i32 noundef %30, i32 noundef 0, i32 noundef 0, i32 noundef 2, ptr noundef null, i64 noundef 0) #17
  %32 = and i64 %31, 4294967295
  %.not6.i = icmp eq i64 %32, 0
  br i1 %.not6.i, label %uv__iou_submit.exit, label %33

33:                                               ; preds = %28
  %34 = tail call ptr @__errno_location() #19
  %35 = load i32, ptr %34, align 4
  %.not7.i = icmp eq i32 %35, 130
  br i1 %.not7.i, label %uv__iou_submit.exit, label %36

36:                                               ; preds = %33
  tail call void @perror(ptr noundef nonnull @.str.25) #21
  br label %uv__iou_submit.exit

uv__iou_submit.exit:                              ; preds = %36, %33, %28, %11, %5, %2
  %.0 = phi i32 [ 0, %2 ], [ 0, %5 ], [ 1, %11 ], [ 1, %28 ], [ 1, %33 ], [ 1, %36 ]
  ret i32 %.0
}